(dp1
S'output'
p2
S"<type 'exceptions.TypeError'> grid() got an unexpected keyword argument 'exportmenu'"
p3
sS'layer'
p4
S'/home/action/workspace/web2py/applications/products/controllers/default.py'
p5
sS'code'
p6
S'# -*- coding: utf-8 -*-\n# this file is released under public domain and you can use without limitations\n\n#########################################################################\n## This is a sample controller\n## - index is the default action of any application\n## - user is required for authentication and authorization\n## - download is for downloading files uploaded in the db (does streaming)\n## - call exposes all registered services (none by default)\n#########################################################################\n\n\ndef index():\n    """\n    example action using the internationalization operator T and flash\n    rendered by views/default/index.html or views/generic.html\n\n    if you need a simple wiki simply replace the two lines below with:\n    return auth.wiki()\n    """\n    response.flash = T("Welcome to Product Tracker!")\n    return dict(message=T(\'Hello World. I \\\'m Ramakrishna.\'))\n  \n@auth.requires_login()\ndef products():\n    """Show all users and posts"""\n    #users = db(db.auth_user.id > 0).select()\n    #posts = db(db.post.id > 0).select()\n    grid = SQLFORM.smartgrid(db.product, deletable=False, exportmenu=False, exportclasses=dict(\n            csv_with_hidden_cols=False,csv=False,json=False,\n            xml=False,\n            html=False,\n            tsv_with_hidden_cols=False,\n            tsv=False))\n    return dict(products = grid)\n  \ndef user():\n    """\n    exposes:\n    http://..../[app]/default/user/login\n    http://..../[app]/default/user/logout\n    http://..../[app]/default/user/register\n    http://..../[app]/default/user/profile\n    http://..../[app]/default/user/retrieve_password\n    http://..../[app]/default/user/change_password\n    http://..../[app]/default/user/manage_users (requires membership in\n    use @auth.requires_login()\n        @auth.requires_membership(\'group name\')\n        @auth.requires_permission(\'read\',\'table name\',record_id)\n    to decorate functions that need access control\n    """\n    return dict(form=auth())\n\n@cache.action()\ndef download():\n    """\n    allows downloading of uploaded files\n    http://..../[app]/default/download/[filename]\n    """\n    return response.download(request, db)\n\n\ndef call():\n    """\n    exposes services. for example:\n    http://..../[app]/default/call/jsonrpc\n    decorate with @services.jsonrpc the functions to expose\n    supports xml, json, xmlrpc, jsonrpc, amfrpc, rss, csv\n    """\n    return service()\n\n\n@auth.requires_signature()\ndef data():\n    """\n    http://..../[app]/default/data/tables\n    http://..../[app]/default/data/create/[table]\n    http://..../[app]/default/data/read/[table]/[id]\n    http://..../[app]/default/data/update/[table]/[id]\n    http://..../[app]/default/data/delete/[table]/[id]\n    http://..../[app]/default/data/select/[table]\n    http://..../[app]/default/data/search/[table]\n    but URLs must be signed, i.e. linked with\n      A(\'table\',_href=URL(\'data/tables\',user_signature=True))\n    or with the signed load operator\n      LOAD(\'default\',\'data.load\',args=\'tables\',ajax=True,user_signature=True)\n    """\n    return dict(form=crud())\n\n@auth.requires_login()\ndef entry_post():\n  """returns a form where user can enter posts"""\n  form = crud.create(db.post)\n  return dict(form=form)\n\n@auth.requires_login()\ndef entry_product():\n  """returns a form where user can enter posts"""\n  form = crud.create(db.product)\n  return dict(form=form)\nresponse._vars=response._caller(products)\n'
p7
sS'snapshot'
p8
(dp9
sS'traceback'
p10
S'Traceback (most recent call last):\n  File "/home/action/workspace/web2py/gluon/restricted.py", line 220, in restricted\n    exec ccode in environment\n  File "/home/action/workspace/web2py/applications/products/controllers/default.py", line 101, in <module>\n  File "/home/action/workspace/web2py/gluon/globals.py", line 385, in <lambda>\n    self._caller = lambda f: f()\n  File "/home/action/workspace/web2py/gluon/tools.py", line 3287, in f\n    return action(*a, **b)\n  File "/home/action/workspace/web2py/applications/products/controllers/default.py", line 34, in products\n    tsv=False))\n  File "/home/action/workspace/web2py/gluon/sqlhtml.py", line 2800, in smartgrid\n    user_signature=user_signature, **kwargs)\nTypeError: grid() got an unexpected keyword argument \'exportmenu\'\n'
p11
s.